target datalayout = "e-m:e-p270:32:32-p271:32:32-p272:64:64-i64:64-i128:128-f80:128-n8:16:32:64-S128"
target triple = "x86_64-pc-linux-gnu"

%"struct.faiss::SplitMix64RandomGenerator" = type { i64 }

; Function Attrs: mustprogress nounwind uwtable
define linkonce_odr noundef i64 @_ZNSt14numeric_limitsImE3maxEv() #3 comdat align 2 {
  ret i64 -1
}

; Function Attrs: mustprogress nounwind uwtable
define noundef i64 @_ZN5faiss25SplitMix64RandomGenerator4nextEv(ptr noundef nonnull align 8 dereferenceable(8) %0) #3 align 2 {
  %2 = alloca ptr, align 8
  %3 = alloca i64, align 8
  store ptr %0, ptr %2, align 8, !tbaa !21
  %4 = load ptr, ptr %2, align 8
  call void @llvm.lifetime.start.p0(i64 8, ptr %3) #5
  %5 = getelementptr inbounds nuw %"struct.faiss::SplitMix64RandomGenerator", ptr %4, i32 0, i32 0
  %6 = load i64, ptr %5, align 8, !tbaa !23
  %7 = add i64 %6, -7046029254386353131
  store i64 %7, ptr %5, align 8, !tbaa !23
  store i64 %7, ptr %3, align 8, !tbaa !9
  %8 = load i64, ptr %3, align 8, !tbaa !9
  %9 = load i64, ptr %3, align 8, !tbaa !9
  %10 = lshr i64 %9, 30
  %11 = xor i64 %8, %10
  %12 = mul i64 %11, -4658895280553007687
  store i64 %12, ptr %3, align 8, !tbaa !9
  %13 = load i64, ptr %3, align 8, !tbaa !9
  %14 = load i64, ptr %3, align 8, !tbaa !9
  %15 = lshr i64 %14, 27
  %16 = xor i64 %13, %15
  %17 = mul i64 %16, -7723592293110705685
  store i64 %17, ptr %3, align 8, !tbaa !9
  %18 = load i64, ptr %3, align 8, !tbaa !9
  %19 = load i64, ptr %3, align 8, !tbaa !9
  %20 = lshr i64 %19, 31
  %21 = xor i64 %18, %20
  call void @llvm.lifetime.end.p0(i64 8, ptr %3) #5
  ret i64 %21
}

; Function Attrs: mustprogress uwtable
define noundef float @_ZN5faiss25SplitMix64RandomGenerator10rand_floatEv(ptr noundef nonnull align 8 dereferenceable(8) %0) #0 align 2 {
  %2 = alloca ptr, align 8
  store ptr %0, ptr %2, align 8, !tbaa !21
  %3 = load ptr, ptr %2, align 8
  %4 = call noundef i64 @_ZN5faiss25SplitMix64RandomGenerator4nextEv(ptr noundef nonnull align 8 dereferenceable(8) %3)
  %5 = uitofp i64 %4 to float
  %6 = call noundef i64 @_ZNSt14numeric_limitsImE3maxEv() #5
  %7 = uitofp i64 %6 to float
  %8 = fdiv float %5, %7
  ret float %8
}